; Function Attrs: mustprogress nofree norecurse nosync nounwind willreturn memory(read, inaccessiblemem: none) uwtable
define internal noundef zeroext i1 @_ZN6icu_7712_GLOBAL__N_115shouldChangeToUERKNS_13UnicodeStringE(ptr noundef nonnull readonly align 8 captures(none) dereferenceable(64) %0) #15 {
  %2 = getelementptr inbounds nuw i8, ptr %0, i64 8
  %3 = load i16, ptr %2, align 8, !tbaa !25
  %4 = icmp slt i16 %3, 0
  %5 = ashr i16 %3, 5
  %6 = sext i16 %5 to i32
  %7 = getelementptr inbounds nuw i8, ptr %0, i64 12
  %8 = load i32, ptr %7, align 4
  %9 = select i1 %4, i32 %8, i32 %6
  %10 = icmp eq i32 %9, 0
  br i1 %10, label %32, label %_ZNK6icu_7713UnicodeStringixEi.exit

_ZNK6icu_7713UnicodeStringixEi.exit:              ; preds = %1
  %11 = and i16 %3, 2
  %.not.i.i.i = icmp eq i16 %11, 0
  %12 = getelementptr inbounds nuw i8, ptr %0, i64 10
  %13 = getelementptr inbounds nuw i8, ptr %0, i64 24
  %14 = load ptr, ptr %13, align 8
  %15 = select i1 %.not.i.i.i, ptr %14, ptr %12
  %16 = load i16, ptr %15, align 2, !tbaa !68
  switch i16 %16, label %_ZNK6icu_7713UnicodeStringixEi.exit29 [
    i16 111, label %32
    i16 79, label %32
    i16 56, label %32
    i16 104, label %19
  ]

_ZNK6icu_7713UnicodeStringixEi.exit29:            ; preds = %_ZNK6icu_7713UnicodeStringixEi.exit
  %17 = icmp eq i16 %16, 72
  %18 = icmp sgt i32 %9, 1
  %or.cond = and i1 %18, %17
  br i1 %or.cond, label %_ZNK6icu_7713UnicodeStringixEi.exit32, label %_ZNK6icu_7713UnicodeStringixEi.exit35.thread

19:                                               ; preds = %_ZNK6icu_7713UnicodeStringixEi.exit
  %.old1 = icmp sgt i32 %9, 1
  br i1 %.old1, label %_ZNK6icu_7713UnicodeStringixEi.exit32, label %.thread48

_ZNK6icu_7713UnicodeStringixEi.exit32:            ; preds = %19, %_ZNK6icu_7713UnicodeStringixEi.exit29
  %20 = getelementptr inbounds nuw i8, ptr %15, i64 2
  %21 = load i16, ptr %20, align 2, !tbaa !68
  %22 = add i16 %21, -79
  %switch.and = and i16 %22, -33
  %switch.selectcmp = icmp eq i16 %switch.and, 0
  br label %32

_ZNK6icu_7713UnicodeStringixEi.exit35.thread:     ; preds = %_ZNK6icu_7713UnicodeStringixEi.exit29
  %23 = icmp eq i16 %16, 49
  %or.cond51 = and i1 %18, %23
  br i1 %or.cond51, label %_ZNK6icu_7713UnicodeStringixEi.exit41, label %.thread48

_ZNK6icu_7713UnicodeStringixEi.exit41:            ; preds = %_ZNK6icu_7713UnicodeStringixEi.exit35.thread
  %24 = getelementptr inbounds nuw i8, ptr %15, i64 2
  %25 = load i16, ptr %24, align 2, !tbaa !68
  %26 = icmp eq i16 %25, 49
  br i1 %26, label %27, label %.thread48

27:                                               ; preds = %_ZNK6icu_7713UnicodeStringixEi.exit41
  %28 = icmp eq i32 %9, 2
  br i1 %28, label %32, label %_ZNK6icu_7713UnicodeStringixEi.exit44

_ZNK6icu_7713UnicodeStringixEi.exit44:            ; preds = %27
  %29 = getelementptr inbounds nuw i8, ptr %15, i64 4
  %30 = load i16, ptr %29, align 2, !tbaa !68
  %31 = icmp eq i16 %30, 32
  br i1 %31, label %32, label %.thread48

.thread48:                                        ; preds = %19, %_ZNK6icu_7713UnicodeStringixEi.exit44, %_ZNK6icu_7713UnicodeStringixEi.exit41, %_ZNK6icu_7713UnicodeStringixEi.exit35.thread
  br label %32

32:                                               ; preds = %_ZNK6icu_7713UnicodeStringixEi.exit32, %_ZNK6icu_7713UnicodeStringixEi.exit, %_ZNK6icu_7713UnicodeStringixEi.exit, %_ZNK6icu_7713UnicodeStringixEi.exit, %27, %_ZNK6icu_7713UnicodeStringixEi.exit44, %1, %.thread48
  %.0 = phi i1 [ false, %.thread48 ], [ false, %1 ], [ true, %_ZNK6icu_7713UnicodeStringixEi.exit ], [ true, %_ZNK6icu_7713UnicodeStringixEi.exit44 ], [ true, %27 ], [ true, %_ZNK6icu_7713UnicodeStringixEi.exit ], [ true, %_ZNK6icu_7713UnicodeStringixEi.exit ], [ %switch.selectcmp, %_ZNK6icu_7713UnicodeStringixEi.exit32 ]
  ret i1 %.0
}